target datalayout = "e-m:e-p270:32:32-p271:32:32-p272:64:64-i64:64-i128:128-f80:128-n8:16:32:64-S128"
target triple = "x86_64-pc-linux-gnu"

%struct.ASN1_STREAM_ARG_st = type { ptr, ptr, ptr }
%struct.ASN1_ITEM_st = type { i8, i64, ptr, i64, ptr, i64, ptr }
%struct.ASN1_AUX_st = type { ptr, i32, i32, i32, ptr, i32, ptr }
%struct.ndef_aux_st = type { ptr, ptr, ptr, ptr, ptr, ptr }

@.str = private unnamed_addr constant [34 x i8] c"../openssl/crypto/asn1/bio_ndef.c\00", align 1

; Function Attrs: nounwind uwtable
define internal i32 @ndef_suffix(ptr noundef %0, ptr noundef %1, ptr noundef %2, ptr noundef %3) #0 {
  %5 = alloca i32, align 4
  %6 = alloca ptr, align 8
  %7 = alloca ptr, align 8
  %8 = alloca ptr, align 8
  %9 = alloca ptr, align 8
  %10 = alloca ptr, align 8
  %11 = alloca ptr, align 8
  %12 = alloca i32, align 4
  %13 = alloca ptr, align 8
  %14 = alloca %struct.ASN1_STREAM_ARG_st, align 8
  %15 = alloca i32, align 4
  store ptr %0, ptr %6, align 8, !tbaa !3
  store ptr %1, ptr %7, align 8, !tbaa !35
  store ptr %2, ptr %8, align 8, !tbaa !36
  store ptr %3, ptr %9, align 8, !tbaa !38
  call void @llvm.lifetime.start.p0(i64 8, ptr %10) #3
  call void @llvm.lifetime.start.p0(i64 8, ptr %11) #3
  call void @llvm.lifetime.start.p0(i64 4, ptr %12) #3
  call void @llvm.lifetime.start.p0(i64 8, ptr %13) #3
  call void @llvm.lifetime.start.p0(i64 24, ptr %14) #3
  %16 = load ptr, ptr %9, align 8, !tbaa !38
  %17 = icmp eq ptr %16, null
  br i1 %17, label %18, label %19

18:                                               ; preds = %4
  store i32 0, ptr %5, align 4
  store i32 1, ptr %15, align 4
  br label %107

19:                                               ; preds = %4
  %20 = load ptr, ptr %9, align 8, !tbaa !38
  %21 = load ptr, ptr %20, align 8, !tbaa !12
  store ptr %21, ptr %10, align 8, !tbaa !12
  %22 = load ptr, ptr %10, align 8, !tbaa !12
  %23 = getelementptr inbounds nuw %struct.ndef_aux_st, ptr %22, i32 0, i32 1
  %24 = load ptr, ptr %23, align 8, !tbaa !31
  %25 = getelementptr inbounds nuw %struct.ASN1_ITEM_st, ptr %24, i32 0, i32 4
  %26 = load ptr, ptr %25, align 8, !tbaa !14
  store ptr %26, ptr %13, align 8, !tbaa !19
  %27 = load ptr, ptr %10, align 8, !tbaa !12
  %28 = getelementptr inbounds nuw %struct.ndef_aux_st, ptr %27, i32 0, i32 2
  %29 = load ptr, ptr %28, align 8, !tbaa !32
  %30 = getelementptr inbounds nuw %struct.ASN1_STREAM_ARG_st, ptr %14, i32 0, i32 1
  store ptr %29, ptr %30, align 8, !tbaa !27
  %31 = load ptr, ptr %10, align 8, !tbaa !12
  %32 = getelementptr inbounds nuw %struct.ndef_aux_st, ptr %31, i32 0, i32 3
  %33 = load ptr, ptr %32, align 8, !tbaa !34
  %34 = getelementptr inbounds nuw %struct.ASN1_STREAM_ARG_st, ptr %14, i32 0, i32 0
  store ptr %33, ptr %34, align 8, !tbaa !24
  %35 = load ptr, ptr %10, align 8, !tbaa !12
  %36 = getelementptr inbounds nuw %struct.ndef_aux_st, ptr %35, i32 0, i32 4
  %37 = load ptr, ptr %36, align 8, !tbaa !33
  %38 = getelementptr inbounds nuw %struct.ASN1_STREAM_ARG_st, ptr %14, i32 0, i32 2
  store ptr %37, ptr %38, align 8, !tbaa !28
  %39 = load ptr, ptr %13, align 8, !tbaa !19
  %40 = getelementptr inbounds nuw %struct.ASN1_AUX_st, ptr %39, i32 0, i32 4
  %41 = load ptr, ptr %40, align 8, !tbaa !21
  %42 = load ptr, ptr %10, align 8, !tbaa !12
  %43 = getelementptr inbounds nuw %struct.ndef_aux_st, ptr %42, i32 0, i32 0
  %44 = load ptr, ptr %10, align 8, !tbaa !12
  %45 = getelementptr inbounds nuw %struct.ndef_aux_st, ptr %44, i32 0, i32 1
  %46 = load ptr, ptr %45, align 8, !tbaa !31
  %47 = call i32 %41(i32 noundef 11, ptr noundef %43, ptr noundef %46, ptr noundef %14)
  %48 = icmp sle i32 %47, 0
  br i1 %48, label %49, label %50

49:                                               ; preds = %19
  store i32 0, ptr %5, align 4
  store i32 1, ptr %15, align 4
  br label %107

50:                                               ; preds = %19
  %51 = load ptr, ptr %10, align 8, !tbaa !12
  %52 = getelementptr inbounds nuw %struct.ndef_aux_st, ptr %51, i32 0, i32 0
  %53 = load ptr, ptr %52, align 8, !tbaa !29
  %54 = load ptr, ptr %10, align 8, !tbaa !12
  %55 = getelementptr inbounds nuw %struct.ndef_aux_st, ptr %54, i32 0, i32 1
  %56 = load ptr, ptr %55, align 8, !tbaa !31
  %57 = call i32 @ASN1_item_ndef_i2d(ptr noundef %53, ptr noundef null, ptr noundef %56)
  store i32 %57, ptr %12, align 4, !tbaa !39
  %58 = load i32, ptr %12, align 4, !tbaa !39
  %59 = icmp slt i32 %58, 0
  br i1 %59, label %60, label %61

60:                                               ; preds = %50
  store i32 0, ptr %5, align 4
  store i32 1, ptr %15, align 4
  br label %107

61:                                               ; preds = %50
  %62 = load i32, ptr %12, align 4, !tbaa !39
  %63 = sext i32 %62 to i64
  %64 = call noalias ptr @CRYPTO_malloc(i64 noundef %63, ptr noundef @.str, i32 noundef 216)
  store ptr %64, ptr %11, align 8, !tbaa !40
  %65 = icmp eq ptr %64, null
  br i1 %65, label %66, label %67

66:                                               ; preds = %61
  store i32 0, ptr %5, align 4
  store i32 1, ptr %15, align 4
  br label %107

67:                                               ; preds = %61
  %68 = load ptr, ptr %11, align 8, !tbaa !40
  %69 = load ptr, ptr %10, align 8, !tbaa !12
  %70 = getelementptr inbounds nuw %struct.ndef_aux_st, ptr %69, i32 0, i32 5
  store ptr %68, ptr %70, align 8, !tbaa !41
  %71 = load ptr, ptr %11, align 8, !tbaa !40
  %72 = load ptr, ptr %7, align 8, !tbaa !35
  store ptr %71, ptr %72, align 8, !tbaa !40
  %73 = load ptr, ptr %10, align 8, !tbaa !12
  %74 = getelementptr inbounds nuw %struct.ndef_aux_st, ptr %73, i32 0, i32 0
  %75 = load ptr, ptr %74, align 8, !tbaa !29
  %76 = load ptr, ptr %10, align 8, !tbaa !12
  %77 = getelementptr inbounds nuw %struct.ndef_aux_st, ptr %76, i32 0, i32 1
  %78 = load ptr, ptr %77, align 8, !tbaa !31
  %79 = call i32 @ASN1_item_ndef_i2d(ptr noundef %75, ptr noundef %11, ptr noundef %78)
  store i32 %79, ptr %12, align 4, !tbaa !39
  %80 = load ptr, ptr %10, align 8, !tbaa !12
  %81 = getelementptr inbounds nuw %struct.ndef_aux_st, ptr %80, i32 0, i32 4
  %82 = load ptr, ptr %81, align 8, !tbaa !33
  %83 = load ptr, ptr %82, align 8, !tbaa !40
  %84 = icmp eq ptr %83, null
  br i1 %84, label %85, label %86

85:                                               ; preds = %67
  store i32 0, ptr %5, align 4
  store i32 1, ptr %15, align 4
  br label %107

86:                                               ; preds = %67
  %87 = load ptr, ptr %10, align 8, !tbaa !12
  %88 = getelementptr inbounds nuw %struct.ndef_aux_st, ptr %87, i32 0, i32 4
  %89 = load ptr, ptr %88, align 8, !tbaa !33
  %90 = load ptr, ptr %89, align 8, !tbaa !40
  %91 = load ptr, ptr %7, align 8, !tbaa !35
  store ptr %90, ptr %91, align 8, !tbaa !40
  %92 = load i32, ptr %12, align 4, !tbaa !39
  %93 = sext i32 %92 to i64
  %94 = load ptr, ptr %10, align 8, !tbaa !12
  %95 = getelementptr inbounds nuw %struct.ndef_aux_st, ptr %94, i32 0, i32 4
  %96 = load ptr, ptr %95, align 8, !tbaa !33
  %97 = load ptr, ptr %96, align 8, !tbaa !40
  %98 = load ptr, ptr %10, align 8, !tbaa !12
  %99 = getelementptr inbounds nuw %struct.ndef_aux_st, ptr %98, i32 0, i32 5
  %100 = load ptr, ptr %99, align 8, !tbaa !41
  %101 = ptrtoint ptr %97 to i64
  %102 = ptrtoint ptr %100 to i64
  %103 = sub i64 %101, %102
  %104 = sub nsw i64 %93, %103
  %105 = trunc i64 %104 to i32
  %106 = load ptr, ptr %8, align 8, !tbaa !36
  store i32 %105, ptr %106, align 4, !tbaa !39
  store i32 1, ptr %5, align 4
  store i32 1, ptr %15, align 4
  br label %107

107:                                              ; preds = %86, %85, %66, %60, %49, %18
  call void @llvm.lifetime.end.p0(i64 24, ptr %14) #3
  call void @llvm.lifetime.end.p0(i64 8, ptr %13) #3
  call void @llvm.lifetime.end.p0(i64 4, ptr %12) #3
  call void @llvm.lifetime.end.p0(i64 8, ptr %11) #3
  call void @llvm.lifetime.end.p0(i64 8, ptr %10) #3
  %108 = load i32, ptr %5, align 4
  ret i32 %108
}