; Function Attrs: nounwind uwtable
define internal range(i32 0, 2) i32 @ndef_suffix(ptr readnone captures(none) %0, ptr noundef writeonly captures(none) %1, ptr noundef writeonly captures(none) %2, ptr noundef readonly captures(address_is_null) %3) #0 {
  %5 = alloca ptr, align 8
  %6 = alloca %struct.ASN1_STREAM_ARG_st, align 8
  call void @llvm.lifetime.start.p0(i64 8, ptr nonnull %5) #4
  call void @llvm.lifetime.start.p0(i64 24, ptr nonnull %6) #4
  %7 = icmp eq ptr %3, null
  br i1 %7, label %50, label %8

8:                                                ; preds = %4
  %9 = load ptr, ptr %3, align 8, !tbaa !29
  %10 = getelementptr inbounds nuw i8, ptr %9, i64 8
  %11 = load ptr, ptr %10, align 8, !tbaa !23
  %12 = getelementptr inbounds nuw i8, ptr %11, i64 32
  %13 = load ptr, ptr %12, align 8, !tbaa !8
  %14 = getelementptr inbounds nuw i8, ptr %9, i64 16
  %15 = load ptr, ptr %14, align 8, !tbaa !25
  %16 = getelementptr inbounds nuw i8, ptr %6, i64 8
  store ptr %15, ptr %16, align 8, !tbaa !24
  %17 = getelementptr inbounds nuw i8, ptr %9, i64 24
  %18 = load ptr, ptr %17, align 8, !tbaa !28
  store ptr %18, ptr %6, align 8, !tbaa !16
  %19 = getelementptr inbounds nuw i8, ptr %9, i64 32
  %20 = load ptr, ptr %19, align 8, !tbaa !27
  %21 = getelementptr inbounds nuw i8, ptr %6, i64 16
  store ptr %20, ptr %21, align 8, !tbaa !26
  %22 = getelementptr inbounds nuw i8, ptr %13, i64 24
  %23 = load ptr, ptr %22, align 8, !tbaa !13
  %24 = call i32 %23(i32 noundef 11, ptr noundef %9, ptr noundef %11, ptr noundef nonnull %6) #4
  %25 = icmp slt i32 %24, 1
  br i1 %25, label %50, label %26

26:                                               ; preds = %8
  %27 = load ptr, ptr %9, align 8, !tbaa !20
  %28 = load ptr, ptr %10, align 8, !tbaa !23
  %29 = call i32 @ASN1_item_ndef_i2d(ptr noundef %27, ptr noundef null, ptr noundef %28) #4
  %30 = icmp slt i32 %29, 0
  br i1 %30, label %50, label %31

31:                                               ; preds = %26
  %32 = zext nneg i32 %29 to i64
  %33 = call noalias ptr @CRYPTO_malloc(i64 noundef %32, ptr noundef nonnull @.str, i32 noundef 216) #4
  store ptr %33, ptr %5, align 8, !tbaa !31
  %34 = icmp eq ptr %33, null
  br i1 %34, label %50, label %35

35:                                               ; preds = %31
  %36 = getelementptr inbounds nuw i8, ptr %9, i64 40
  store ptr %33, ptr %36, align 8, !tbaa !32
  store ptr %33, ptr %1, align 8, !tbaa !31
  %37 = load ptr, ptr %9, align 8, !tbaa !20
  %38 = load ptr, ptr %10, align 8, !tbaa !23
  %39 = call i32 @ASN1_item_ndef_i2d(ptr noundef %37, ptr noundef nonnull %5, ptr noundef %38) #4
  %40 = load ptr, ptr %19, align 8, !tbaa !27
  %41 = load ptr, ptr %40, align 8, !tbaa !31
  %42 = icmp eq ptr %41, null
  br i1 %42, label %50, label %43

43:                                               ; preds = %35
  store ptr %41, ptr %1, align 8, !tbaa !31
  %44 = load ptr, ptr %40, align 8, !tbaa !31
  %45 = load ptr, ptr %36, align 8, !tbaa !32
  %46 = ptrtoint ptr %44 to i64
  %47 = ptrtoint ptr %45 to i64
  %.neg = sub i64 %47, %46
  %48 = trunc i64 %.neg to i32
  %49 = add i32 %39, %48
  store i32 %49, ptr %2, align 4, !tbaa !33
  br label %50

50:                                               ; preds = %35, %31, %26, %8, %4, %43
  %.0 = phi i32 [ 1, %43 ], [ 0, %4 ], [ 0, %8 ], [ 0, %26 ], [ 0, %31 ], [ 0, %35 ]
  call void @llvm.lifetime.end.p0(i64 24, ptr nonnull %6) #4
  call void @llvm.lifetime.end.p0(i64 8, ptr nonnull %5) #4
  ret i32 %.0
}